; ModuleID = 'source-C-CXX/2/2998.c'
source_filename = "source-C-CXX/2/2998.c"
target datalayout = "e-m:e-p270:32:32-p271:32:32-p272:64:64-i64:64-f80:128-n8:16:32:64-S128"
target triple = "x86_64-pc-linux-gnu"

@.str = private unnamed_addr constant [5 x i8] c"%d%d\00", align 1
@.str.1 = private unnamed_addr constant [3 x i8] c"%d\00", align 1
@.str.2 = private unnamed_addr constant [4 x i8] c"yes\00", align 1
@.str.3 = private unnamed_addr constant [3 x i8] c"no\00", align 1

; Function Attrs: nofree nounwind sspstrong uwtable
define dso_local void @main() local_unnamed_addr #0 {
  %1 = alloca i32, align 4
  %2 = alloca i32, align 4
  %3 = alloca [1000 x i32], align 16
  %4 = bitcast i32* %1 to i8*
  call void @llvm.lifetime.start.p0i8(i64 4, i8* nonnull %4) #4
  %5 = bitcast i32* %2 to i8*
  call void @llvm.lifetime.start.p0i8(i64 4, i8* nonnull %5) #4
  %6 = bitcast [1000 x i32]* %3 to i8*
  call void @llvm.lifetime.start.p0i8(i64 4000, i8* nonnull %6) #4
  call void @llvm.memset.p0i8.i64(i8* noundef nonnull align 16 dereferenceable(4000) %6, i8 0, i64 4000, i1 false)
  %7 = call i32 (i8*, ...) @__isoc99_scanf(i8* getelementptr inbounds ([5 x i8], [5 x i8]* @.str, i64 0, i64 0), i32* nonnull %1, i32* nonnull %2)
  %8 = getelementptr inbounds [1000 x i32], [1000 x i32]* %3, i64 0, i64 0
  %9 = load i32, i32* %1, align 4, !tbaa !5
  %10 = icmp sgt i32 %9, 0
  br i1 %10, label %17, label %46

11:                                               ; preds = %17
  %12 = add nsw i32 %21, -1
  %13 = sext i32 %12 to i64
  %14 = getelementptr inbounds [1000 x i32], [1000 x i32]* %3, i64 0, i64 %13
  %15 = load i32, i32* %2, align 4
  %16 = icmp sgt i32 %21, 1
  br i1 %16, label %25, label %46

17:                                               ; preds = %0, %17
  %18 = phi i32* [ %20, %17 ], [ %8, %0 ]
  %19 = call i32 (i8*, ...) @__isoc99_scanf(i8* getelementptr inbounds ([3 x i8], [3 x i8]* @.str.1, i64 0, i64 0), i32* nonnull %18)
  %20 = getelementptr inbounds i32, i32* %18, i64 1
  %21 = load i32, i32* %1, align 4, !tbaa !5
  %22 = sext i32 %21 to i64
  %23 = getelementptr inbounds [1000 x i32], [1000 x i32]* %3, i64 0, i64 %22
  %24 = icmp ult i32* %20, %23
  br i1 %24, label %17, label %11, !llvm.loop !9

25:                                               ; preds = %11, %41
  %26 = phi i32* [ %28, %41 ], [ %8, %11 ]
  %27 = phi i32 [ %42, %41 ], [ 0, %11 ]
  %28 = getelementptr inbounds i32, i32* %26, i64 1
  %29 = icmp ult i32* %28, %23
  br i1 %29, label %30, label %41

30:                                               ; preds = %25
  %31 = load i32, i32* %26, align 4, !tbaa !5
  br label %32

32:                                               ; preds = %30, %32
  %33 = phi i32* [ %28, %30 ], [ %39, %32 ]
  %34 = phi i32 [ %27, %30 ], [ %38, %32 ]
  %35 = load i32, i32* %33, align 4, !tbaa !5
  %36 = add nsw i32 %35, %31
  %37 = icmp eq i32 %36, %15
  %38 = select i1 %37, i32 1, i32 %34
  %39 = getelementptr inbounds i32, i32* %33, i64 1
  %40 = icmp ult i32* %39, %23
  br i1 %40, label %32, label %41, !llvm.loop !11

41:                                               ; preds = %32, %25
  %42 = phi i32 [ %27, %25 ], [ %38, %32 ]
  %43 = icmp ult i32* %28, %14
  br i1 %43, label %25, label %44, !llvm.loop !12

44:                                               ; preds = %41
  %45 = icmp eq i32 %42, 1
  br i1 %45, label %47, label %46

46:                                               ; preds = %0, %11, %44
  br label %47

47:                                               ; preds = %44, %46
  %48 = phi i8* [ getelementptr inbounds ([3 x i8], [3 x i8]* @.str.3, i64 0, i64 0), %46 ], [ getelementptr inbounds ([4 x i8], [4 x i8]* @.str.2, i64 0, i64 0), %44 ]
  %49 = call i32 (i8*, ...) @printf(i8* nonnull dereferenceable(1) %48)
  call void @llvm.lifetime.end.p0i8(i64 4000, i8* nonnull %6) #4
  call void @llvm.lifetime.end.p0i8(i64 4, i8* nonnull %5) #4
  call void @llvm.lifetime.end.p0i8(i64 4, i8* nonnull %4) #4
  ret void
}

; Function Attrs: argmemonly mustprogress nofree nosync nounwind willreturn
declare void @llvm.lifetime.start.p0i8(i64 immarg, i8* nocapture) #1

; Function Attrs: argmemonly mustprogress nofree nounwind willreturn writeonly
declare void @llvm.memset.p0i8.i64(i8* nocapture writeonly, i8, i64, i1 immarg) #2

; Function Attrs: nofree nounwind
declare noundef i32 @__isoc99_scanf(i8* nocapture noundef readonly, ...) local_unnamed_addr #3

; Function Attrs: nofree nounwind
declare noundef i32 @printf(i8* nocapture noundef readonly, ...) local_unnamed_addr #3

; Function Attrs: argmemonly mustprogress nofree nosync nounwind willreturn
declare void @llvm.lifetime.end.p0i8(i64 immarg, i8* nocapture) #1


!llvm.module.flags = !{!0, !1, !2, !3}
!llvm.ident = !{!4}

!0 = !{i32 1, !"wchar_size", i32 4}
!1 = !{i32 7, !"PIC Level", i32 2}
!2 = !{i32 7, !"PIE Level", i32 2}
!3 = !{i32 7, !"uwtable", i32 1}
!4 = !{!"clang version 13.0.0"}
!5 = !{!6, !6, i64 0}
!6 = !{!"int", !7, i64 0}
!7 = !{!"omnipotent char", !8, i64 0}
!8 = !{!"Simple C/C++ TBAA"}
!9 = distinct !{!9, !10}
!10 = !{!"llvm.loop.mustprogress"}
!11 = distinct !{!11, !10}
!12 = distinct !{!12, !10}
